target datalayout = "e-m:e-p270:32:32-p271:32:32-p272:64:64-i64:64-i128:128-f80:128-n8:16:32:64-S128"
target triple = "x86_64-pc-linux-gnu"

@.str = private unnamed_addr constant [30 x i8] c"../openssl/crypto/ct/ct_oct.c\00", align 1
@__func__.o2i_SCT_LIST = private unnamed_addr constant [13 x i8] c"o2i_SCT_LIST\00", align 1

; Function Attrs: inlinehint nounwind uwtable
define internal ptr @ossl_check_SCT_type(ptr noundef %0) #4 {
  %2 = alloca ptr, align 8
  store ptr %0, ptr %2, align 8, !tbaa !3
  %3 = load ptr, ptr %2, align 8, !tbaa !3
  ret ptr %3
}

; Function Attrs: inlinehint nounwind uwtable
define internal ptr @ossl_check_SCT_sk_type(ptr noundef %0) #4 {
  %2 = alloca ptr, align 8
  store ptr %0, ptr %2, align 8, !tbaa !34
  %3 = load ptr, ptr %2, align 8, !tbaa !34
  ret ptr %3
}

; Function Attrs: nounwind uwtable
define ptr @o2i_SCT_LIST(ptr noundef %0, ptr noundef %1, i64 noundef %2) #0 {
  %4 = alloca ptr, align 8
  %5 = alloca ptr, align 8
  %6 = alloca ptr, align 8
  %7 = alloca i64, align 8
  %8 = alloca ptr, align 8
  %9 = alloca i64, align 8
  %10 = alloca i64, align 8
  %11 = alloca i32, align 4
  %12 = alloca ptr, align 8
  %13 = alloca ptr, align 8
  store ptr %0, ptr %5, align 8, !tbaa !32
  store ptr %1, ptr %6, align 8, !tbaa !8
  store i64 %2, ptr %7, align 8, !tbaa !10
  call void @llvm.lifetime.start.p0(i64 8, ptr %8) #5
  store ptr null, ptr %8, align 8, !tbaa !34
  call void @llvm.lifetime.start.p0(i64 8, ptr %9) #5
  call void @llvm.lifetime.start.p0(i64 8, ptr %10) #5
  %14 = load i64, ptr %7, align 8, !tbaa !10
  %15 = icmp ult i64 %14, 2
  br i1 %15, label %19, label %16

16:                                               ; preds = %3
  %17 = load i64, ptr %7, align 8, !tbaa !10
  %18 = icmp ugt i64 %17, 65535
  br i1 %18, label %19, label %20

19:                                               ; preds = %16, %3
  call void @ERR_new()
  call void @ERR_set_debug(ptr noundef @.str, i32 noundef 260, ptr noundef @__func__.o2i_SCT_LIST)
  call void (i32, i32, ptr, ...) @ERR_set_error(i32 noundef 50, i32 noundef 105, ptr noundef null)
  store ptr null, ptr %4, align 8
  store i32 1, ptr %11, align 4
  br label %144

20:                                               ; preds = %16
  %21 = load ptr, ptr %6, align 8, !tbaa !8
  %22 = load ptr, ptr %21, align 8, !tbaa !16
  %23 = getelementptr inbounds i8, ptr %22, i64 0
  %24 = load i8, ptr %23, align 1, !tbaa !17
  %25 = zext i8 %24 to i32
  %26 = shl i32 %25, 8
  %27 = load ptr, ptr %6, align 8, !tbaa !8
  %28 = load ptr, ptr %27, align 8, !tbaa !16
  %29 = getelementptr inbounds i8, ptr %28, i64 1
  %30 = load i8, ptr %29, align 1, !tbaa !17
  %31 = zext i8 %30 to i32
  %32 = or i32 %26, %31
  %33 = zext i32 %32 to i64
  store i64 %33, ptr %9, align 8, !tbaa !10
  %34 = load ptr, ptr %6, align 8, !tbaa !8
  %35 = load ptr, ptr %34, align 8, !tbaa !16
  %36 = getelementptr inbounds i8, ptr %35, i64 2
  store ptr %36, ptr %34, align 8, !tbaa !16
  %37 = load i64, ptr %9, align 8, !tbaa !10
  %38 = load i64, ptr %7, align 8, !tbaa !10
  %39 = sub i64 %38, 2
  %40 = icmp ne i64 %37, %39
  br i1 %40, label %41, label %42

41:                                               ; preds = %20
  call void @ERR_new()
  call void @ERR_set_debug(ptr noundef @.str, i32 noundef 266, ptr noundef @__func__.o2i_SCT_LIST)
  call void (i32, i32, ptr, ...) @ERR_set_error(i32 noundef 50, i32 noundef 105, ptr noundef null)
  store ptr null, ptr %4, align 8
  store i32 1, ptr %11, align 4
  br label %144

42:                                               ; preds = %20
  %43 = load ptr, ptr %5, align 8, !tbaa !32
  %44 = icmp eq ptr %43, null
  br i1 %44, label %49, label %45

45:                                               ; preds = %42
  %46 = load ptr, ptr %5, align 8, !tbaa !32
  %47 = load ptr, ptr %46, align 8, !tbaa !34
  %48 = icmp eq ptr %47, null
  br i1 %48, label %49, label %55

49:                                               ; preds = %45, %42
  %50 = call ptr @OPENSSL_sk_new_null()
  store ptr %50, ptr %8, align 8, !tbaa !34
  %51 = load ptr, ptr %8, align 8, !tbaa !34
  %52 = icmp eq ptr %51, null
  br i1 %52, label %53, label %54

53:                                               ; preds = %49
  store ptr null, ptr %4, align 8
  store i32 1, ptr %11, align 4
  br label %144

54:                                               ; preds = %49
  br label %66

55:                                               ; preds = %45
  call void @llvm.lifetime.start.p0(i64 8, ptr %12) #5
  %56 = load ptr, ptr %5, align 8, !tbaa !32
  %57 = load ptr, ptr %56, align 8, !tbaa !34
  store ptr %57, ptr %8, align 8, !tbaa !34
  br label %58

58:                                               ; preds = %63, %55
  %59 = load ptr, ptr %8, align 8, !tbaa !34
  %60 = call ptr @ossl_check_SCT_sk_type(ptr noundef %59)
  %61 = call ptr @OPENSSL_sk_pop(ptr noundef %60)
  store ptr %61, ptr %12, align 8, !tbaa !3
  %62 = icmp ne ptr %61, null
  br i1 %62, label %63, label %65

63:                                               ; preds = %58
  %64 = load ptr, ptr %12, align 8, !tbaa !3
  call void @SCT_free(ptr noundef %64)
  br label %58, !llvm.loop !36

65:                                               ; preds = %58
  call void @llvm.lifetime.end.p0(i64 8, ptr %12) #5
  br label %66

66:                                               ; preds = %65, %54
  br label %67

67:                                               ; preds = %121, %66
  %68 = load i64, ptr %9, align 8, !tbaa !10
  %69 = icmp ugt i64 %68, 0
  br i1 %69, label %70, label %122

70:                                               ; preds = %67
  call void @llvm.lifetime.start.p0(i64 8, ptr %13) #5
  %71 = load i64, ptr %9, align 8, !tbaa !10
  %72 = icmp ult i64 %71, 2
  br i1 %72, label %73, label %74

73:                                               ; preds = %70
  call void @ERR_new()
  call void @ERR_set_debug(ptr noundef @.str, i32 noundef 287, ptr noundef @__func__.o2i_SCT_LIST)
  call void (i32, i32, ptr, ...) @ERR_set_error(i32 noundef 50, i32 noundef 105, ptr noundef null)
  store i32 6, ptr %11, align 4
  br label %119

74:                                               ; preds = %70
  %75 = load ptr, ptr %6, align 8, !tbaa !8
  %76 = load ptr, ptr %75, align 8, !tbaa !16
  %77 = getelementptr inbounds i8, ptr %76, i64 0
  %78 = load i8, ptr %77, align 1, !tbaa !17
  %79 = zext i8 %78 to i32
  %80 = shl i32 %79, 8
  %81 = load ptr, ptr %6, align 8, !tbaa !8
  %82 = load ptr, ptr %81, align 8, !tbaa !16
  %83 = getelementptr inbounds i8, ptr %82, i64 1
  %84 = load i8, ptr %83, align 1, !tbaa !17
  %85 = zext i8 %84 to i32
  %86 = or i32 %80, %85
  %87 = zext i32 %86 to i64
  store i64 %87, ptr %10, align 8, !tbaa !10
  %88 = load ptr, ptr %6, align 8, !tbaa !8
  %89 = load ptr, ptr %88, align 8, !tbaa !16
  %90 = getelementptr inbounds i8, ptr %89, i64 2
  store ptr %90, ptr %88, align 8, !tbaa !16
  %91 = load i64, ptr %9, align 8, !tbaa !10
  %92 = sub i64 %91, 2
  store i64 %92, ptr %9, align 8, !tbaa !10
  %93 = load i64, ptr %10, align 8, !tbaa !10
  %94 = icmp eq i64 %93, 0
  br i1 %94, label %99, label %95

95:                                               ; preds = %74
  %96 = load i64, ptr %10, align 8, !tbaa !10
  %97 = load i64, ptr %9, align 8, !tbaa !10
  %98 = icmp ugt i64 %96, %97
  br i1 %98, label %99, label %100

99:                                               ; preds = %95, %74
  call void @ERR_new()
  call void @ERR_set_debug(ptr noundef @.str, i32 noundef 294, ptr noundef @__func__.o2i_SCT_LIST)
  call void (i32, i32, ptr, ...) @ERR_set_error(i32 noundef 50, i32 noundef 105, ptr noundef null)
  store i32 6, ptr %11, align 4
  br label %119

100:                                              ; preds = %95
  %101 = load i64, ptr %10, align 8, !tbaa !10
  %102 = load i64, ptr %9, align 8, !tbaa !10
  %103 = sub i64 %102, %101
  store i64 %103, ptr %9, align 8, !tbaa !10
  %104 = load ptr, ptr %6, align 8, !tbaa !8
  %105 = load i64, ptr %10, align 8, !tbaa !10
  %106 = call ptr @o2i_SCT(ptr noundef null, ptr noundef %104, i64 noundef %105)
  store ptr %106, ptr %13, align 8, !tbaa !3
  %107 = icmp eq ptr %106, null
  br i1 %107, label %108, label %109

108:                                              ; preds = %100
  store i32 6, ptr %11, align 4
  br label %119

109:                                              ; preds = %100
  %110 = load ptr, ptr %8, align 8, !tbaa !34
  %111 = call ptr @ossl_check_SCT_sk_type(ptr noundef %110)
  %112 = load ptr, ptr %13, align 8, !tbaa !3
  %113 = call ptr @ossl_check_SCT_type(ptr noundef %112)
  %114 = call i32 @OPENSSL_sk_push(ptr noundef %111, ptr noundef %113)
  %115 = icmp ne i32 %114, 0
  br i1 %115, label %118, label %116

116:                                              ; preds = %109
  %117 = load ptr, ptr %13, align 8, !tbaa !3
  call void @SCT_free(ptr noundef %117)
  store i32 6, ptr %11, align 4
  br label %119

118:                                              ; preds = %109
  store i32 0, ptr %11, align 4
  br label %119

119:                                              ; preds = %116, %108, %99, %73, %118
  call void @llvm.lifetime.end.p0(i64 8, ptr %13) #5
  %120 = load i32, ptr %11, align 4
  switch i32 %120, label %144 [
    i32 0, label %121
    i32 6, label %134
  ]

121:                                              ; preds = %119
  br label %67, !llvm.loop !38

122:                                              ; preds = %67
  %123 = load ptr, ptr %5, align 8, !tbaa !32
  %124 = icmp ne ptr %123, null
  br i1 %124, label %125, label %132

125:                                              ; preds = %122
  %126 = load ptr, ptr %5, align 8, !tbaa !32
  %127 = load ptr, ptr %126, align 8, !tbaa !34
  %128 = icmp eq ptr %127, null
  br i1 %128, label %129, label %132

129:                                              ; preds = %125
  %130 = load ptr, ptr %8, align 8, !tbaa !34
  %131 = load ptr, ptr %5, align 8, !tbaa !32
  store ptr %130, ptr %131, align 8, !tbaa !34
  br label %132

132:                                              ; preds = %129, %125, %122
  %133 = load ptr, ptr %8, align 8, !tbaa !34
  store ptr %133, ptr %4, align 8
  store i32 1, ptr %11, align 4
  br label %144

134:                                              ; preds = %119
  %135 = load ptr, ptr %5, align 8, !tbaa !32
  %136 = icmp eq ptr %135, null
  br i1 %136, label %141, label %137

137:                                              ; preds = %134
  %138 = load ptr, ptr %5, align 8, !tbaa !32
  %139 = load ptr, ptr %138, align 8, !tbaa !34
  %140 = icmp eq ptr %139, null
  br i1 %140, label %141, label %143

141:                                              ; preds = %137, %134
  %142 = load ptr, ptr %8, align 8, !tbaa !34
  call void @SCT_LIST_free(ptr noundef %142)
  br label %143

143:                                              ; preds = %141, %137
  store ptr null, ptr %4, align 8
  store i32 1, ptr %11, align 4
  br label %144

144:                                              ; preds = %143, %132, %119, %53, %41, %19
  call void @llvm.lifetime.end.p0(i64 8, ptr %10) #5
  call void @llvm.lifetime.end.p0(i64 8, ptr %9) #5
  call void @llvm.lifetime.end.p0(i64 8, ptr %8) #5
  %145 = load ptr, ptr %4, align 8
  ret ptr %145
}