; Function Attrs: nounwind uwtable
define ptr @o2i_SCT_LIST(ptr noundef captures(address_is_null) %0, ptr noundef captures(none) %1, i64 noundef %2) local_unnamed_addr #0 {
  %4 = add i64 %2, -65536
  %or.cond = icmp ult i64 %4, -65534
  br i1 %or.cond, label %5, label %6

5:                                                ; preds = %3
  tail call void @ERR_new() #4
  tail call void @ERR_set_debug(ptr noundef nonnull @.str, i32 noundef 260, ptr noundef nonnull @__func__.o2i_SCT_LIST) #4
  tail call void (i32, i32, ptr, ...) @ERR_set_error(i32 noundef 50, i32 noundef 105, ptr noundef null) #4
  br label %60

6:                                                ; preds = %3
  %7 = load ptr, ptr %1, align 8, !tbaa !11
  %8 = load i8, ptr %7, align 1, !tbaa !12
  %9 = zext i8 %8 to i64
  %10 = shl nuw nsw i64 %9, 8
  %11 = getelementptr inbounds nuw i8, ptr %7, i64 1
  %12 = load i8, ptr %11, align 1, !tbaa !12
  %13 = zext i8 %12 to i64
  %14 = or disjoint i64 %10, %13
  %15 = getelementptr inbounds nuw i8, ptr %7, i64 2
  store ptr %15, ptr %1, align 8, !tbaa !11
  %16 = add nsw i64 %2, -2
  %.not = icmp eq i64 %14, %16
  br i1 %.not, label %18, label %17

17:                                               ; preds = %6
  tail call void @ERR_new() #4
  tail call void @ERR_set_debug(ptr noundef nonnull @.str, i32 noundef 266, ptr noundef nonnull @__func__.o2i_SCT_LIST) #4
  tail call void (i32, i32, ptr, ...) @ERR_set_error(i32 noundef 50, i32 noundef 105, ptr noundef null) #4
  br label %60

18:                                               ; preds = %6
  %19 = icmp eq ptr %0, null
  br i1 %19, label %24, label %20

20:                                               ; preds = %18
  %21 = load ptr, ptr %0, align 8, !tbaa !26
  %22 = icmp eq ptr %21, null
  br i1 %22, label %24, label %.preheader

.preheader:                                       ; preds = %20
  %23 = tail call ptr @OPENSSL_sk_pop(ptr noundef nonnull %21) #4
  %.not5261 = icmp eq ptr %23, null
  br i1 %.not5261, label %.loopexit59, label %.lr.ph

24:                                               ; preds = %20, %18
  %25 = tail call ptr @OPENSSL_sk_new_null() #4
  %26 = icmp eq ptr %25, null
  br i1 %26, label %60, label %.loopexit59

.lr.ph:                                           ; preds = %.preheader, %.lr.ph
  %27 = phi ptr [ %28, %.lr.ph ], [ %23, %.preheader ]
  tail call void @SCT_free(ptr noundef nonnull %27) #4
  %28 = tail call ptr @OPENSSL_sk_pop(ptr noundef nonnull %21) #4
  %.not52 = icmp eq ptr %28, null
  br i1 %.not52, label %.loopexit59, label %.lr.ph, !llvm.loop !28

.loopexit59:                                      ; preds = %.lr.ph, %.preheader, %24
  %.039 = phi ptr [ %25, %24 ], [ %21, %.preheader ], [ %21, %.lr.ph ]
  br label %29

29:                                               ; preds = %47, %.loopexit59
  %.041 = phi i64 [ %14, %.loopexit59 ], [ %48, %47 ]
  switch i64 %.041, label %31 [
    i64 0, label %51
    i64 1, label %30
  ]

30:                                               ; preds = %29
  tail call void @ERR_new() #4
  tail call void @ERR_set_debug(ptr noundef nonnull @.str, i32 noundef 287, ptr noundef nonnull @__func__.o2i_SCT_LIST) #4
  tail call void (i32, i32, ptr, ...) @ERR_set_error(i32 noundef 50, i32 noundef 105, ptr noundef null) #4
  br label %.loopexit

31:                                               ; preds = %29
  %32 = load ptr, ptr %1, align 8, !tbaa !11
  %33 = load i8, ptr %32, align 1, !tbaa !12
  %34 = zext i8 %33 to i64
  %35 = shl nuw nsw i64 %34, 8
  %36 = getelementptr inbounds nuw i8, ptr %32, i64 1
  %37 = load i8, ptr %36, align 1, !tbaa !12
  %38 = zext i8 %37 to i64
  %39 = or disjoint i64 %35, %38
  %40 = getelementptr inbounds nuw i8, ptr %32, i64 2
  store ptr %40, ptr %1, align 8, !tbaa !11
  %41 = add i64 %.041, -2
  %42 = add nsw i64 %39, -1
  %or.cond56.not = icmp ult i64 %42, %41
  br i1 %or.cond56.not, label %44, label %43

43:                                               ; preds = %31
  tail call void @ERR_new() #4
  tail call void @ERR_set_debug(ptr noundef nonnull @.str, i32 noundef 294, ptr noundef nonnull @__func__.o2i_SCT_LIST) #4
  tail call void (i32, i32, ptr, ...) @ERR_set_error(i32 noundef 50, i32 noundef 105, ptr noundef null) #4
  br label %.loopexit

44:                                               ; preds = %31
  %45 = tail call ptr @o2i_SCT(ptr noundef null, ptr noundef nonnull %1, i64 noundef %39)
  %46 = icmp eq ptr %45, null
  br i1 %46, label %.loopexit, label %47

47:                                               ; preds = %44
  %48 = sub nuw i64 %41, %39
  %49 = tail call i32 @OPENSSL_sk_push(ptr noundef nonnull %.039, ptr noundef nonnull %45) #4
  %.not55 = icmp eq i32 %49, 0
  br i1 %.not55, label %50, label %29

50:                                               ; preds = %47
  tail call void @SCT_free(ptr noundef nonnull %45) #4
  br label %.loopexit

51:                                               ; preds = %29
  br i1 %19, label %60, label %52

52:                                               ; preds = %51
  %53 = load ptr, ptr %0, align 8, !tbaa !26
  %54 = icmp eq ptr %53, null
  br i1 %54, label %55, label %60

55:                                               ; preds = %52
  store ptr %.039, ptr %0, align 8, !tbaa !26
  br label %60

.loopexit:                                        ; preds = %44, %30, %43, %50
  br i1 %19, label %59, label %56

56:                                               ; preds = %.loopexit
  %57 = load ptr, ptr %0, align 8, !tbaa !26
  %58 = icmp eq ptr %57, null
  br i1 %58, label %59, label %60

59:                                               ; preds = %56, %.loopexit
  tail call void @SCT_LIST_free(ptr noundef nonnull %.039) #4
  br label %60

60:                                               ; preds = %56, %59, %51, %52, %55, %24, %17, %5
  %.0 = phi ptr [ null, %5 ], [ null, %17 ], [ null, %24 ], [ %.039, %55 ], [ %.039, %52 ], [ %.039, %51 ], [ null, %59 ], [ null, %56 ]
  ret ptr %.0
}